target datalayout = "e-m:e-p270:32:32-p271:32:32-p272:64:64-i64:64-i128:128-f80:128-n8:16:32:64-S128"
target triple = "x86_64-pc-linux-gnu"

@.str.88 = private unnamed_addr constant [25 x i8] c"android-logcat-text-main\00", align 1
@.str.89 = private unnamed_addr constant [27 x i8] c"android-logcat-text-system\00", align 1
@.str.90 = private unnamed_addr constant [26 x i8] c"android-logcat-text-radio\00", align 1
@.str.91 = private unnamed_addr constant [27 x i8] c"android-logcat-text-events\00", align 1
@.str.92 = private unnamed_addr constant [26 x i8] c"android-logcat-text-crash\00", align 1

; Function Attrs: null_pointer_is_valid sspstrong uwtable
define internal zeroext i1 @is_logcat_text_interface(ptr noundef %0) #0 {
  %2 = alloca ptr, align 8
  store ptr %0, ptr %2, align 8
  %3 = load ptr, ptr %2, align 8
  %4 = call i32 @is_specified_interface(ptr noundef %3, ptr noundef @.str.88)
  %5 = icmp ne i32 %4, 0
  br i1 %5, label %22, label %6

6:                                                ; preds = %1
  %7 = load ptr, ptr %2, align 8
  %8 = call i32 @is_specified_interface(ptr noundef %7, ptr noundef @.str.89)
  %9 = icmp ne i32 %8, 0
  br i1 %9, label %22, label %10

10:                                               ; preds = %6
  %11 = load ptr, ptr %2, align 8
  %12 = call i32 @is_specified_interface(ptr noundef %11, ptr noundef @.str.90)
  %13 = icmp ne i32 %12, 0
  br i1 %13, label %22, label %14

14:                                               ; preds = %10
  %15 = load ptr, ptr %2, align 8
  %16 = call i32 @is_specified_interface(ptr noundef %15, ptr noundef @.str.91)
  %17 = icmp ne i32 %16, 0
  br i1 %17, label %22, label %18

18:                                               ; preds = %14
  %19 = load ptr, ptr %2, align 8
  %20 = call i32 @is_specified_interface(ptr noundef %19, ptr noundef @.str.92)
  %21 = icmp ne i32 %20, 0
  br label %22

22:                                               ; preds = %18, %14, %10, %6, %1
  %23 = phi i1 [ true, %14 ], [ true, %10 ], [ true, %6 ], [ true, %1 ], [ %21, %18 ]
  ret i1 %23
}