; Function Attrs: mustprogress nofree nounwind null_pointer_is_valid sspstrong willreturn memory(argmem: read) uwtable
define internal fastcc zeroext i1 @is_logcat_text_interface(ptr noundef readonly captures(none) %0) unnamed_addr #5 {
  %2 = tail call i32 @strncmp(ptr noundef readonly %0, ptr noundef nonnull dereferenceable(25) @.str.88, i64 noundef 24) #22
  %.not.i.not = icmp eq i32 %2, 0
  br i1 %.not.i.not, label %12, label %3

3:                                                ; preds = %1
  %4 = tail call i32 @strncmp(ptr noundef readonly %0, ptr noundef nonnull dereferenceable(27) @.str.89, i64 noundef 26) #22
  %.not.i8.not = icmp eq i32 %4, 0
  br i1 %.not.i8.not, label %12, label %5

5:                                                ; preds = %3
  %6 = tail call i32 @strncmp(ptr noundef readonly %0, ptr noundef nonnull dereferenceable(26) @.str.90, i64 noundef 25) #22
  %.not.i9.not = icmp eq i32 %6, 0
  br i1 %.not.i9.not, label %12, label %7

7:                                                ; preds = %5
  %8 = tail call i32 @strncmp(ptr noundef readonly %0, ptr noundef nonnull dereferenceable(27) @.str.91, i64 noundef 26) #22
  %.not.i10.not = icmp eq i32 %8, 0
  br i1 %.not.i10.not, label %12, label %9

9:                                                ; preds = %7
  %10 = tail call fastcc i32 @is_specified_interface(ptr noundef %0, ptr noundef nonnull @.str.92)
  %11 = icmp ne i32 %10, 0
  br label %12

12:                                               ; preds = %9, %7, %5, %3, %1
  %13 = phi i1 [ true, %7 ], [ true, %5 ], [ true, %3 ], [ true, %1 ], [ %11, %9 ]
  ret i1 %13
}